; Function Attrs: mustprogress nounwind uwtable
define void @_ZN3net16SerializedPacketD2Ev(ptr noundef nonnull readonly align 8 captures(address) dereferenceable(96) %0) unnamed_addr #5 align 2 personality ptr @__gxx_personality_v0 {
  %2 = getelementptr inbounds nuw i8, ptr %0, i64 72
  %3 = load ptr, ptr %2, align 8, !tbaa !260
  %.not8.i.i = icmp eq ptr %3, %2
  br i1 %.not8.i.i, label %_ZNSt7__cxx1110_List_baseIN3net18AckListenerWrapperESaIS2_EED2Ev.exit, label %.lr.ph.i.i

.lr.ph.i.i:                                       ; preds = %1, %.lr.ph.i.i
  %.09.i.i = phi ptr [ %4, %.lr.ph.i.i ], [ %3, %1 ]
  %4 = load ptr, ptr %.09.i.i, align 8, !tbaa !260
  %5 = getelementptr inbounds nuw i8, ptr %.09.i.i, i64 16
  tail call void @_ZN3net18AckListenerWrapperD1Ev(ptr noundef nonnull align 8 dereferenceable(10) %5) #30
  tail call void @_ZdlPv(ptr noundef nonnull %.09.i.i) #29
  %.not.i.i = icmp eq ptr %4, %2
  br i1 %.not.i.i, label %_ZNSt7__cxx1110_List_baseIN3net18AckListenerWrapperESaIS2_EED2Ev.exit, label %.lr.ph.i.i, !llvm.loop !271

_ZNSt7__cxx1110_List_baseIN3net18AckListenerWrapperESaIS2_EED2Ev.exit: ; preds = %.lr.ph.i.i, %1
  %6 = getelementptr inbounds nuw i8, ptr %0, i64 16
  %7 = load ptr, ptr %6, align 8, !tbaa !263
  %.not.i.i.i = icmp eq ptr %7, null
  br i1 %.not.i.i.i, label %_ZNSt6vectorIN3net9QuicFrameESaIS1_EED2Ev.exit, label %8

8:                                                ; preds = %_ZNSt7__cxx1110_List_baseIN3net18AckListenerWrapperESaIS2_EED2Ev.exit
  tail call void @_ZdlPv(ptr noundef nonnull %7) #29
  br label %_ZNSt6vectorIN3net9QuicFrameESaIS1_EED2Ev.exit

_ZNSt6vectorIN3net9QuicFrameESaIS1_EED2Ev.exit:   ; preds = %_ZNSt7__cxx1110_List_baseIN3net18AckListenerWrapperESaIS2_EED2Ev.exit, %8
  ret void
}